target datalayout = "e-m:e-p270:32:32-p271:32:32-p272:64:64-i64:64-i128:128-f80:128-n8:16:32:64-S128"
target triple = "x86_64-pc-linux-gnu"

%"class.tbb::detail::r1::pm_client" = type { ptr, ptr, i32, i32 }

@_ZTVN3tbb6detail2r19pm_clientE = linkonce_odr unnamed_addr constant { [6 x ptr] } { [6 x ptr] [ptr null, ptr @_ZTIN3tbb6detail2r19pm_clientE, ptr @_ZN3tbb6detail2r19pm_clientD2Ev, ptr @_ZN3tbb6detail2r19pm_clientD0Ev, ptr @__cxa_pure_virtual, ptr @__cxa_pure_virtual] }, comdat, align 8

; Function Attrs: mustprogress nounwind sspstrong uwtable
define linkonce_odr void @_ZN3tbb6detail2r19pm_clientC2ERNS1_5arenaE(ptr noundef nonnull align 8 dereferenceable(24) %0, ptr noundef nonnull align 128 dereferenceable(768) %1) unnamed_addr #0 comdat align 2 {
  %3 = alloca ptr, align 8
  %4 = alloca ptr, align 8
  store ptr %0, ptr %3, align 8, !tbaa !33
  store ptr %1, ptr %4, align 8, !tbaa !29
  %5 = load ptr, ptr %3, align 8
  store ptr getelementptr inbounds inrange(-16, 32) ({ [6 x ptr] }, ptr @_ZTVN3tbb6detail2r19pm_clientE, i32 0, i32 0, i32 2), ptr %5, align 8, !tbaa !10
  %6 = getelementptr inbounds nuw %"class.tbb::detail::r1::pm_client", ptr %5, i32 0, i32 1
  %7 = load ptr, ptr %4, align 8, !tbaa !29
  store ptr %7, ptr %6, align 8, !tbaa !29
  %8 = getelementptr inbounds nuw %"class.tbb::detail::r1::pm_client", ptr %5, i32 0, i32 2
  store i32 0, ptr %8, align 8, !tbaa !69
  %9 = getelementptr inbounds nuw %"class.tbb::detail::r1::pm_client", ptr %5, i32 0, i32 3
  store i32 0, ptr %9, align 4, !tbaa !68
  ret void
}

; Function Attrs: mustprogress sspstrong uwtable
define linkonce_odr void @_ZN3tbb6detail2r125tbb_permit_manager_clientC2ERNS1_5arenaE(ptr noundef nonnull align 8 dereferenceable(24) %0, ptr noundef nonnull align 128 dereferenceable(768) %1) unnamed_addr #2 comdat align 2 {
  %3 = alloca ptr, align 8
  %4 = alloca ptr, align 8
  store ptr %0, ptr %3, align 8, !tbaa !31
  store ptr %1, ptr %4, align 8, !tbaa !29
  %5 = load ptr, ptr %3, align 8
  %6 = load ptr, ptr %4, align 8, !tbaa !29
  call void @_ZN3tbb6detail2r19pm_clientC2ERNS1_5arenaE(ptr noundef nonnull align 8 dereferenceable(24) %5, ptr noundef nonnull align 128 dereferenceable(768) %6)
  store ptr getelementptr inbounds inrange(-16, 32) ({ [6 x ptr] }, ptr @_ZTVN3tbb6detail2r125tbb_permit_manager_clientE, i32 0, i32 0, i32 2), ptr %5, align 8, !tbaa !10
  ret void
}

; Function Attrs: mustprogress sspstrong uwtable
define noundef ptr @_ZN3tbb6detail2r16market13create_clientERNS1_5arenaE(ptr noundef nonnull align 8 dereferenceable(120) %0, ptr noundef nonnull align 128 dereferenceable(768) %1) unnamed_addr #2 align 2 {
  %3 = alloca ptr, align 8
  %4 = alloca ptr, align 8
  store ptr %0, ptr %3, align 8, !tbaa !3
  store ptr %1, ptr %4, align 8, !tbaa !29
  %5 = call noundef ptr @_ZN3tbb6detail2r122cache_aligned_allocateEm(i64 noundef 24)
  %6 = load ptr, ptr %4, align 8, !tbaa !29
  call void @_ZN3tbb6detail2r125tbb_permit_manager_clientC2ERNS1_5arenaE(ptr noundef nonnull align 8 dereferenceable(24) %5, ptr noundef nonnull align 128 dereferenceable(768) %6)
  ret ptr %5
}