; Function Attrs: mustprogress sspstrong uwtable
define noundef ptr @_ZN3tbb6detail2r16market13create_clientERNS1_5arenaE(ptr nonnull readnone align 8 captures(none) %0, ptr noundef nonnull align 128 dereferenceable(768) %1) unnamed_addr #1 align 2 {
  %3 = tail call noundef ptr @_ZN3tbb6detail2r122cache_aligned_allocateEm(i64 noundef 24)
  %4 = getelementptr inbounds nuw i8, ptr %3, i64 8
  store ptr %1, ptr %4, align 8, !tbaa !19
  %5 = getelementptr inbounds nuw i8, ptr %3, i64 16
  store i32 0, ptr %5, align 8, !tbaa !21
  %6 = getelementptr inbounds nuw i8, ptr %3, i64 20
  store i32 0, ptr %6, align 4, !tbaa !23
  store ptr getelementptr inbounds nuw inrange(-16, 32) (i8, ptr @_ZTVN3tbb6detail2r125tbb_permit_manager_clientE, i64 16), ptr %3, align 8, !tbaa !9
  ret ptr %3
}